(dp1
S'audio_mfcc'
p2
I2000
sS'text_tag_unigrams'
p3
I12185772
sS'vision_hist_motion_estimate'
p4
I64
sS'vision_cuboids_histogram'
p5
I512
sS'audio_sai_intervalgrams'
p6
I4096
sS'vision_hog_features'
p7
I647
sS'audio_sai_boxes'
p8
I7168
sS'text_description_unigrams'
p9
I12183626
sS'audio_spectrogram_stream'
p10
I1024
sS'text_game_lda_1000'
p11
I1000
sS'vision_misc'
p12
I838
sS'vision_hs_hist_stream'
p13
I1024
sS'audio_volume_stream'
p14
I64
s.